ccollections
defaultdict
p1
(c__builtin__
int
p2
tRp3
S'9121'
p4
I57
sS'34772'
p5
I2
sS'12874'
p6
I7
sS'15169'
p7
I21
sS'5511'
p8
I1
sS'17639'
p9
I1
sS'197556'
p10
I5
sS'3491'
p11
I6
sS'3320'
p12
I2
sS'43350'
p13
I2
sS'6453'
p14
I22
sS'8447'
p15
I132
sS'12716'
p16
I1
sS'7018'
p17
I4
sS'4766'
p18
I7
sS'10026'
p19
I52
sS'7922'
p20
I11
sS'174'
p21
I11
sS'15412'
p22
I9
sS'7713'
p23
I1
sS'7575'
p24
I1
sS'196714'
p25
I1
sS'21502'
p26
I1
sS'4826'
p27
I1
sS'unknown'
p28
I141
sS'8881'
p29
I1
sS'5588'
p30
I9
sS'3257'
p31
I2
sS'35320'
p32
I2
sS'1257'
p33
I3
sS'1299'
p34
I28
sS'1759'
p35
I9
sS'7473'
p36
I2
sS'8928'
p37
I1
sS'8220'
p38
I1
sS'30999'
p39
I3
sS'2914'
p40
I34
sS'36868'
p41
I2
sS'209'
p42
I11
sS'1273'
p43
I2
sS'31027'
p44
I3
sS'1239'
p45
I2
sS'9505'
p46
I2
sS'8359'
p47
I1
sS'3356'
p48
I605
sS'18101'
p49
I3
sS'21320'
p50
I2
sS'15133'
p51
I5
sS'6939'
p52
I17
sS'6774'
p53
I33
sS'37271'
p54
I5
sS'38740'
p55
I2
sS'5713'
p56
I1
sS'3549'
p57
I1
sS'2497'
p58
I7
sS'6461'
p59
I1
sS'21299'
p60
I5
sS'4637'
p61
I2
sS'32787'
p62
I71
sS'13237'
p63
I2
sS'6830'
p64
I1
s.