ccollections
defaultdict
p1
(c__builtin__
int
p2
tRp3
S'35236'
p4
I5
sS'7311'
p5
I2
sS'20910'
p6
I5
sS'1200'
p7
I2
sS'58381'
p8
I25
sS'18881'
p9
I1
sS'29216'
p10
I63
sS'48294'
p11
I2
sS'34419'
p12
I2
sS'35625'
p13
I25
sS'8308'
p14
I11
sS'32934'
p15
I2198
sS'8804'
p16
I4
sS'39063'
p17
I1
sS'1257'
p18
I443
sS'3252'
p19
I3
sS'24167'
p20
I6
sS'3255'
p21
I28
sS'3257'
p22
I9741
sS'8262'
p23
I11
sS'197288'
p24
I68
sS'9931'
p25
I47
sS'39107'
p26
I27
sS'19151'
p27
I59
sS'53164'
p28
I1
sS'37045'
p29
I2
sS'33920'
p30
I24
sS'2914'
p31
I5958
sS'41798'
p32
I17
sS'43733'
p33
I2
sS'198228'
p34
I2
sS'31117'
p35
I6
sS'715'
p36
I8
sS'714'
p37
I1407
sS'2854'
p38
I13
sS'2856'
p39
I296
sS'3333'
p40
I18
sS'6848'
p41
I6
sS'3330'
p42
I2
sS'8151'
p43
I1
sS'7049'
p44
I3
sS'10208'
p45
I4
sS'15440'
p46
I6
sS'15598'
p47
I18
sS'4739'
p48
I22
sS'262589'
p49
I23
sS'6799'
p50
I3
sS'19653'
p51
I11
sS'36617'
p52
I10
sS'36616'
p53
I4
sS'195'
p54
I6
sS'32787'
p55
I163
sS'293'
p56
I28
sS'56246'
p57
I1
sS'30999'
p58
I5
sS'57119'
p59
I29
sS'17557'
p60
I120
sS'6724'
p61
I11
sS'56055'
p62
I3
sS'49515'
p63
I39
sS'39369'
p64
I2
sS'4657'
p65
I129
sS'2607'
p66
I9
sS'2828'
p67
I110
sS'40633'
p68
I2
sS'13424'
p69
I3
sS'202040'
p70
I2
sS'12989'
p71
I215
sS'52091'
p72
I1
sS'5410'
p73
I31
sS'5413'
p74
I15
sS'58552'
p75
I3
sS'49420'
p76
I4
sS'2381'
p77
I17
sS'6769'
p78
I1
sS'7004'
p79
I5
sS'38082'
p80
I5
sS'15589'
p81
I9
sS'8732'
p82
I32
sS'34347'
p83
I1
sS'16876'
p84
I17
sS'49605'
p85
I15
sS'13901'
p86
I2
sS'52130'
p87
I2
sS'1239'
p88
I353
sS'2764'
p89
I14
sS'18106'
p90
I15
sS'18101'
p91
I5
sS'12843'
p92
I42
sS'6939'
p93
I3958
sS'6057'
p94
I20
sS'40528'
p95
I7
sS'2047'
p96
I1
sS'5578'
p97
I17
sS'2107'
p98
I5
sS'13331'
p99
I15
sS'26617'
p100
I3
sS'13335'
p101
I20
sS'39138'
p102
I2
sS'1241'
p103
I3
sS'2486'
p104
I8
sS'2588'
p105
I1
sS'29140'
p106
I7
sS'{51375}'
p107
I8
sS'23148'
p108
I4
sS'21299'
p109
I18
sS'2687'
p110
I2
sS'9557'
p111
I3
sS'22548'
p112
I22
sS'9733'
p113
I10
sS'2614'
p114
I11
sS'2611'
p115
I8
sS'199422'
p116
I35
sS'29691'
p117
I10
sS'18451'
p118
I11
sS'43205'
p119
I5
sS'20485'
p120
I169
sS'34612'
p121
I2
sS'24122'
p122
I3
sS'9329'
p123
I4
sS'7342'
p124
I38
sS'1909'
p125
I1
sS'10026'
p126
I414
sS'8468'
p127
I59
sS'197495'
p128
I2
sS'3292'
p129
I353
sS'197451'
p130
I18
sS'51349'
p131
I3
sS'8190'
p132
I18
sS'852'
p133
I18
sS'30971'
p134
I14
sS'7782'
p135
I21
sS'51430'
p136
I12
sS'39386'
p137
I30
sS'41230'
p138
I4
sS'8194'
p139
I8
sS'41998'
p140
I8
sS'7552'
p141
I97
sS'198644'
p142
I10
sS'12337'
p143
I5
sS'30633'
p144
I90
sS'22356'
p145
I2
sS'45011'
p146
I4
sS'41692'
p147
I3
sS'6805'
p148
I405
sS'6802'
p149
I1
sS'9583'
p150
I3
sS'18200'
p151
I15
sS'4775'
p152
I152
sS'812'
p153
I30
sS'6421'
p154
I1
sS'49784'
p155
I9
sS'201682'
p156
I12
sS'24151'
p157
I1
sS'37708'
p158
I5
sS'27843'
p159
I6
sS'3209'
p160
I88
sS'9942'
p161
I31
sS'39134'
p162
I3
sS'8839'
p163
I13
sS'8932'
p164
I34
sS'6895'
p165
I59
sS'29076'
p166
I37
sS'25152'
p167
I115
sS'63949'
p168
I535
sS'21021'
p169
I8
sS'559'
p170
I9
sS'19529'
p171
I10
sS'24971'
p172
I33
sS'12812'
p173
I5
sS'56300'
p174
I5
sS'553'
p175
I43
sS'25019'
p176
I4
sS'58453'
p177
I102
sS'17828'
p178
I246
sS'60388'
p179
I5
sS'16625'
p180
I1
sS'59103'
p181
I1
sS'29405'
p182
I27
sS'12695'
p183
I23
sS'11404'
p184
I120
sS'32653'
p185
I15
sS'42541'
p186
I11
sS'10834'
p187
I4
sS'37678'
p188
I2
sS'36629'
p189
I2
sS'1759'
p190
I12
sS'9370'
p191
I2
sS'6471'
p192
I2
sS'4788'
p193
I2
sS'31287'
p194
I61
sS'38861'
p195
I28
sS'2852'
p196
I32
sS'8167'
p197
I19
sS'17501'
p198
I2
sS'5459'
p199
I23
sS'1273'
p200
I3370
sS'31122'
p201
I14
sS'12883'
p202
I50
sS'12880'
p203
I2
sS'9116'
p204
I48
sS'50316'
p205
I3
sS'60169'
p206
I22
sS'24489'
p207
I18
sS'5539'
p208
I55
sS'5538'
p209
I15
sS'25478'
p210
I56
sS'47692'
p211
I6
sS'1280'
p212
I22
sS'9824'
p213
I99
sS'11164'
p214
I61
sS'2128'
p215
I66
sS'12703'
p216
I1
sS'7545'
p217
I97
sS'8764'
p218
I7
sS'8767'
p219
I88
sS'8763'
p220
I9
sS'681'
p221
I7
sS'680'
p222
I118
sS'25577'
p223
I9
sS'8641'
p224
I9
sS'8426'
p225
I82
sS'20676'
p226
I67
sS'1307'
p227
I8
sS'8422'
p228
I85
sS'28917'
p229
I181
sS'197556'
p230
I60
sS'41887'
p231
I8
sS'133453'
p232
I2
sS'137'
p233
I4
sS'50897'
p234
I2
sS'63403'
p235
I2
sS'20771'
p236
I3
sS'7385'
p237
I20
sS'27768'
p238
I87
sS'1836'
p239
I55
sS'5580'
p240
I28
sS'1835'
p241
I78
sS'12400'
p242
I10
sS'2593'
p243
I2
sS'12406'
p244
I10
sS'3790'
p245
I2
sS'9834'
p246
I9
sS'7590'
p247
I3
sS'6327'
p248
I107
sS'31042'
p249
I50
sS'2018'
p250
I270
sS'2152'
p251
I235
sS'33280'
p252
I2
sS'198260'
p253
I2
sS'9063'
p254
I24
sS'134053'
p255
I5
sS'33480'
p256
I10
sS'20634'
p257
I7
sS'14840'
p258
I2
sS'28022'
p259
I1
sS'13319'
p260
I10
sS'29208'
p261
I89
sS'14061'
p262
I27
sS'3249'
p263
I18
sS'41095'
p264
I66
sS'9901'
p265
I2
sS'39702'
p266
I8
sS'13092'
p267
I11
sS'60157'
p268
I1
sS'39179'
p269
I9
sS'7521'
p270
I93
sS'12301'
p271
I15
sS'7527'
p272
I56
sS'12303'
p273
I4
sS'5610'
p274
I1
sS'2907'
p275
I36
sS'12637'
p276
I2
sS'36620'
p277
I2
sS'56595'
p278
I4
sS'15399'
p279
I10
sS'701'
p280
I146
sS'702'
p281
I83
sS'703'
p282
I10
sS'12713'
p283
I5
sS'88'
p284
I5
sS'12716'
p285
I25
sS'12714'
p286
I30
sS'12715'
p287
I39
sS'39405'
p288
I1
sS'16095'
p289
I35
sS'3303'
p290
I103
sS'16097'
p291
I25
sS'3301'
p292
I16
sS'29606'
p293
I14
sS'36621'
p294
I10
sS'790'
p295
I6
sS'6663'
p296
I17
sS'6661'
p297
I64
sS'12657'
p298
I2
sS'6667'
p299
I281
sS'5432'
p300
I9
sS'198435'
p301
I42
sS'44053'
p302
I2
sS'44050'
p303
I1
sS'9443'
p304
I2
sS'9112'
p305
I1
sS'8758'
p306
I19
sS'30844'
p307
I416
sS'1133'
p308
I3
sS'31242'
p309
I7
sS'50168'
p310
I7
sS'3741'
p311
I487
sS'15133'
p312
I190
sS'47605'
p313
I76
sS'43996'
p314
I14
sS'10466'
p315
I3
sS'20473'
p316
I4
sS'5404'
p317
I17
sS'3212'
p318
I15
sS'5400'
p319
I684
sS'5408'
p320
I25
sS'18747'
p321
I7
sS'16395'
p322
I2
sS'48287'
p323
I5
sS'513'
p324
I58
sS'29432'
p325
I6
sS'8501'
p326
I28
sS'9121'
p327
I303
sS'12874'
p328
I224
sS'3597'
p329
I4
sS'1221'
p330
I427
sS'31019'
p331
I7
sS'45177'
p332
I19
sS'23655'
p333
I4
sS'{28885}'
p334
I1
sS'21949'
p335
I9
sS'34164'
p336
I4
sS'45170'
p337
I5
sS'9246'
p338
I1
sS'56910'
p339
I1
sS'201958'
p340
I2
sS'15557'
p341
I113
sS'22561'
p342
I4
sS'48918'
p343
I49
sS'39912'
p344
I19
sS'13285'
p345
I121
sS'174'
p346
I9260
sS'17126'
p347
I2
sS'8240'
p348
I5
sS'15412'
p349
I728
sS'53131'
p350
I1
sS'7713'
p351
I10
sS'7712'
p352
I5
sS'21283'
p353
I9
sS'4826'
p354
I527
sS'unknown'
p355
I17719
sS'5394'
p356
I18
sS'7497'
p357
I36
sS'4508'
p358
I11
sS'21282'
p359
I14
sS'2119'
p360
I252
sS'20836'
p361
I8
sS'2110'
p362
I120
sS'46309'
p363
I14
sS'42337'
p364
I1
sS'8595'
p365
I15
sS'2116'
p366
I88
sS'8591'
p367
I11
sS'16004'
p368
I3
sS'197564'
p369
I1
sS'31334'
p370
I66
sS'36944'
p371
I17
sS'20940'
p372
I222
sS'20080'
p373
I18
sS'34587'
p374
I25
sS'10217'
p375
I4
sS'5607'
p376
I104
sS'201776'
p377
I9
sS'37468'
p378
I20
sS'20647'
p379
I20
sS'8473'
p380
I175
sS'12578'
p381
I49
sS'271'
p382
I2
sS'13193'
p383
I5
sS'133752'
p384
I27
sS'12570'
p385
I22
sS'33044'
p386
I3
sS'5713'
p387
I40
sS'13194'
p388
I30
sS'24245'
p389
I8
sS'31424'
p390
I10
sS'42652'
p391
I26
sS'55410'
p392
I10
sS'4651'
p393
I36
sS'22335'
p394
I4
sS'35805'
p395
I32
sS'24589'
p396
I6
sS'15924'
p397
I9
sS'3557'
p398
I287
sS'9051'
p399
I11
sS'9304'
p400
I280
sS'18678'
p401
I1
sS'43317'
p402
I16
sS'52965'
p403
I1
sS'4766'
p404
I992
sS'9050'
p405
I15
sS'4768'
p406
I11
sS'12615'
p407
I2
sS'29278'
p408
I4
sS'57963'
p409
I1
sS'26599'
p410
I7
sS'8926'
p411
I3
sS'19422'
p412
I6
sS'39122'
p413
I44
sS'50629'
p414
I26
sS'39120'
p415
I26
sS'19037'
p416
I10
sS'13101'
p417
I33
sS'8928'
p418
I634
sS'52280'
p419
I1
sS'59521'
p420
I4
sS'12956'
p421
I4012
sS'19255'
p422
I12
sS'209'
p423
I571
sS'60574'
p424
I10
sS'21013'
p425
I1
sS'42473'
p426
I22
sS'28513'
p427
I2
sS'3356'
p428
I5430
sS'38022'
p429
I38
sS'3352'
p430
I1
sS'7660'
p431
I34
sS'6866'
p432
I4
sS'327844'
p433
I1
sS'17547'
p434
I4
sS'15772'
p435
I167
sS'8935'
p436
I2
sS'4713'
p437
I74
sS'135150'
p438
I4
sS'38740'
p439
I38
sS'1680'
p440
I6
sS'29107'
p441
I7
sS'33362'
p442
I10
sS'262195'
p443
I1
sS'{135197}'
p444
I1
sS'57866'
p445
I5
sS'1764'
p446
I503
sS'23752'
p447
I23
sS'1140'
p448
I3
sS'8251'
p449
I23
sS'35432'
p450
I6
sS'668'
p451
I26
sS'200507'
p452
I1
sS'1267'
p453
I305
sS'3491'
p454
I1058
sS'25509'
p455
I4
sS'16276'
p456
I93
sS'17676'
p457
I6
sS'24990'
p458
I8
sS'8781'
p459
I285
sS'15516'
p460
I3
sS'42699'
p461
I13
sS'29695'
p462
I12
sS'15685'
p463
I6
sS'29119'
p464
I1
sS'24961'
p465
I8
sS'8717'
p466
I4
sS'34309'
p467
I9
sS'15994'
p468
I1
sS'20115'
p469
I3
sS'8657'
p470
I38
sS'31200'
p471
I4
sS'1312'
p472
I26
sS'8437'
p473
I13
sS'35733'
p474
I4
sS'45595'
p475
I4
sS'24785'
p476
I150
sS'29551'
p477
I24
sS'9821'
p478
I25
sS'22927'
p479
I4
sS'12430'
p480
I4
sS'53093'
p481
I1
sS'20764'
p482
I388
sS'15290'
p483
I2
sS'4230'
p484
I5
sS'53824'
p485
I28
sS'12389'
p486
I702
sS'6568'
p487
I12
sS'199354'
p488
I2
sS'59253'
p489
I49
sS'44843'
p490
I1
sS'5617'
p491
I17
sS'31500'
p492
I125
sS'2519'
p493
I5
sS'19782'
p494
I9
sS'28226'
p495
I3
sS'2149'
p496
I32
sS'15377'
p497
I1
sS'5391'
p498
I85
sS'55329'
p499
I69
sS'50581'
p500
I7
sS'5396'
p501
I11
sS'59675'
p502
I12
sS'197133'
p503
I6
sS'9092'
p504
I37
sS'8445'
p505
I6
sS'3274'
p506
I9
sS'8447'
p507
I116
sS'26415'
p508
I30
sS'43350'
p509
I34
sS'9658'
p510
I7
sS'42000'
p511
I4
sS'47147'
p512
I56
sS'201709'
p513
I4
sS'17494'
p514
I17
sS'5650'
p515
I1
sS'201701'
p516
I1
sS'201702'
p517
I5
sS'22300'
p518
I2
sS'8881'
p519
I548
sS'7366'
p520
I4
sS'12779'
p521
I31
sS'35320'
p522
I41
sS'41313'
p523
I35
sS'8968'
p524
I15
sS'199599'
p525
I2
sS'12310'
p526
I7
sS'32425'
p527
I9
sS'55429'
p528
I5
sS'37457'
p529
I6
sS'8966'
p530
I175
sS'60330'
p531
I20
sS'38930'
p532
I2
sS'9158'
p533
I16
sS'23947'
p534
I24
sS'42861'
p535
I1
sS'6677'
p536
I10
sS'62214'
p537
I5
sS'9002'
p538
I1191
sS'7029'
p539
I5
sS'5483'
p540
I336
sS'9009'
p541
I18
sS'786'
p542
I153
sS'6774'
p543
I62
sS'27750'
p544
I69
sS'51184'
p545
I18
sS'4755'
p546
I66
sS'24607'
p547
I3
sS'39010'
p548
I3
sS'15835'
p549
I7
sS'16150'
p550
I4
sS'36937'
p551
I1
sS'13030'
p552
I356
sS'50618'
p553
I2
sS'8218'
p554
I498
sS'12676'
p555
I10
sS'8211'
p556
I9
sS'15943'
p557
I18
sS'17639'
p558
I62
sS'577'
p559
I21
sS'4637'
p560
I2222
sS'5588'
p561
I130
sS'24218'
p562
I24
sS'51988'
p563
I4
sS'2200'
p564
I499
sS'42409'
p565
I4
sS'8866'
p566
I74
sS'16160'
p567
I3
sS'16086'
p568
I98
sS'30990'
p569
I2
sS'56357'
p570
I7
sS'34224'
p571
I29
sS'29396'
p572
I5
sS'29422'
p573
I2
sS'52320'
p574
I43
sS'23520'
p575
I421
sS'4270'
p576
I7
sS'7922'
p577
I566
sS'8100'
p578
I1
sS'28716'
p579
I1
sS'9503'
p580
I22
sS'9500'
p581
I21
sS'31027'
p582
I55
sS'45494'
p583
I3
sS'21385'
p584
I21
sS'9505'
p585
I120
sS'15547'
p586
I32
sS'16347'
p587
I4
sS'41965'
p588
I8
sS'52048'
p589
I8
sS'18125'
p590
I4
sS'27733'
p591
I4
sS'7843'
p592
I321
sS'49544'
p593
I5
sS'4761'
p594
I24
sS'4557'
p595
I2
sS'10474'
p596
I342
sS'9506'
p597
I2
sS'25248'
p598
I38
sS'4837'
p599
I9
sS'2518'
p600
I22
sS'1103'
p601
I68
sS'48347'
p602
I2
sS'1101'
p603
I2
sS'2516'
p604
I922
sS'20804'
p605
I57
sS'8585'
p606
I6
sS'34772'
p607
I4
sS'8365'
p608
I31
sS'34779'
p609
I70
sS'35313'
p610
I5
sS'13657'
p611
I6
sS'49964'
p612
I1
sS'38639'
p613
I5
sS'38064'
p614
I3
sS'37474'
p615
I10
sS'8560'
p616
I159
sS'8400'
p617
I79
sS'26615'
p618
I1
sS'44814'
p619
I10
sS'37578'
p620
I1
sS'7575'
p621
I199
sS'8226'
p622
I1
sS'7203'
p623
I16
sS'25394'
p624
I4
sS'30950'
p625
I8
sS'12617'
p626
I2
sS'45267'
p627
I8
sS'7470'
p628
I26
sS'12353'
p629
I5
sS'7473'
p630
I1348
sS'7474'
p631
I109
sS'196714'
p632
I4
sS'3910'
p633
I32
sS'14907'
p634
I19
sS'393246'
p635
I2
sS'6730'
p636
I55
sS'9049'
p637
I23
sS'23352'
p638
I36
sS'39642'
p639
I14
sS'6736'
p640
I98
sS'200612'
p641
I19
sS'45815'
p642
I9
sS'6739'
p643
I1
sS'62310'
p644
I20
sS'21413'
p645
I13
sS'21412'
p646
I9
sS'21416'
p647
I1
sS'55824'
p648
I30
sS'37271'
p649
I63
sS'49800'
p650
I17
sS'9299'
p651
I80
sS'21556'
p652
I216
sS'3549'
p653
I272
sS'3223'
p654
I214
sS'28663'
p655
I3
sS'51090'
p656
I4
sS'24724'
p657
I1
sS'24725'
p658
I2
sS'7500'
p659
I39
sS'35258'
p660
I15
sS'44141'
p661
I13
sS'11845'
p662
I33
sS'15169'
p663
I5467
sS'768'
p664
I14
sS'54054'
p665
I8
sS'22773'
p666
I7
sS'25074'
p667
I2
sS'3758'
p668
I2
sS'2847'
p669
I7
sS'40300'
p670
I4
sS'766'
p671
I37
sS'47165'
p672
I1
sS'3320'
p673
I1940
sS'25512'
p674
I15
sS'27552'
p675
I21
sS'13249'
p676
I15
sS'3326'
p677
I38
sS'3327'
p678
I106
sS'25376'
p679
I7
sS'3329'
p680
I21
sS'12778'
p681
I1
sS'38195'
p682
I23
sS'6871'
p683
I1
sS'23855'
p684
I2
sS'40824'
p685
I5
sS'5379'
p686
I8
sS'29467'
p687
I19
sS'5377'
p688
I2
sS'57734'
p689
I8
sS'43561'
p690
I2
sS'13004'
p691
I8
sS'1299'
p692
I24287
sS'56258'
p693
I4
sS'6124'
p694
I1
sS'33988'
p695
I5
sS'37611'
p696
I8
sS'10954'
p697
I17
sS'286'
p698
I855
sS'8220'
p699
I30
sS'15935'
p700
I16
sS'47232'
p701
I14
sS'49505'
p702
I20
sS'25291'
p703
I63
sS'59469'
p704
I36
sS'5518'
p705
I6
sS'29124'
p706
I1
sS'5511'
p707
I318
sS'50673'
p708
I80
sS'21219'
p709
I21
sS'16302'
p710
I2
sS'17645'
p711
I1
sS'4648'
p712
I1
sS'60299'
p713
I6
sS'59'
p714
I2
sS'17858'
p715
I14
sS'43668'
p716
I4
sS'5564'
p717
I1
sS'2495'
p718
I17
sS'2497'
p719
I461
sS'52376'
p720
I2
sS'29049'
p721
I83
sS'37100'
p722
I560
sS'12969'
p723
I23
sS'8708'
p724
I3
sS'49024'
p725
I4
sS'26167'
p726
I16
sS'20612'
p727
I2
sS'21351'
p728
I4
sS'34106'
p729
I9
sS'9264'
p730
I1
sS'4134'
p731
I2
sS'9269'
p732
I14
sS'46887'
p733
I16
sS'39839'
p734
I6
sS'57344'
p735
I7
sS'3246'
p736
I3
sS'9498'
p737
I480
sS'6453'
p738
I4388
sS'111'
p739
I5
sS'5603'
p740
I28
sS'5769'
p741
I3
sS'15348'
p742
I1
sS'8522'
p743
I1
sS'64049'
p744
I1
sS'12586'
p745
I1
sS'27066'
p746
I1
sS'9145'
p747
I120
sS'206549'
p748
I2
sS'25192'
p749
I14
sS'4445'
p750
I2
sS'1850'
p751
I9
sS'4809'
p752
I21
sS'21183'
p753
I3
sS'1853'
p754
I25
sS'13303'
p755
I1
sS'45629'
p756
I3
sS'29632'
p757
I15
sS'12306'
p758
I11
sS'42961'
p759
I1
sS'1901'
p760
I1
sS'30781'
p761
I68
sS'48858'
p762
I2
sS'14041'
p763
I3
sS'2602'
p764
I17
sS'2603'
p765
I670
sS'20712'
p766
I15
sS'2609'
p767
I45
sS'133372'
p768
I44
sS'8359'
p769
I484
sS'8455'
p770
I27
sS'1930'
p771
I44
sS'3265'
p772
I17
sS'21320'
p773
I1026
sS'3267'
p774
I42
sS'24130'
p775
I43
sS'3269'
p776
I13
sS'28000'
p777
I10
sS'5089'
p778
I57
sS'35297'
p779
I15
sS'39153'
p780
I4
sS'3462'
p781
I4
sS'6429'
p782
I17
sS'12322'
p783
I5
sS'13238'
p784
I86
sS'9790'
p785
I14
sS'48276'
p786
I9
sS'39392'
p787
I37
sS'20312'
p788
I1
sS'13237'
p789
I291
sS'6830'
p790
I2101
sS'59605'
p791
I53
sS'23951'
p792
I8
sS'9031'
p793
I14
sS'7018'
p794
I341
sS'51468'
p795
I124
sS'196745'
p796
I4
sS'12731'
p797
I33
sS'48159'
p798
I1
sS'42525'
p799
I72
sS'45204'
p800
I51
sS'3216'
p801
I112
sS'132602'
p802
I4
sS'43727'
p803
I76
sS'46786'
p804
I2
sS'6762'
p805
I2427
sS'50607'
p806
I4
sS'37084'
p807
I29
sS'36628'
p808
I8
sS'48084'
p809
I6
sS'32244'
p810
I68
sS'13041'
p811
I10
sS'201011'
p812
I904
sS'39029'
p813
I5
sS'59105'
p814
I2
sS'15802'
p815
I13
sS'51225'
p816
I7
sS'16735'
p817
I9
sS'8778'
p818
I10
sS'33843'
p819
I13
sS'3605'
p820
I15
sS'34288'
p821
I27
sS'56704'
p822
I27
sS'24940'
p823
I562
sS'6886'
p824
I2
sS'7642'
p825
I7
sS'4608'
p826
I24
sS'6881'
p827
I4
sS'226'
p828
I49
sS'58587'
p829
I60
sS'17819'
p830
I30
sS'14259'
p831
I1
sS'2686'
p832
I13
sS'12859'
p833
I32
sS'47872'
p834
I20
sS'43531'
p835
I45
sS'28573'
p836
I1
sS'38796'
p837
I34
sS'30798'
p838
I6
sS'12687'
p839
I1
sS'12741'
p840
I113
sS'8529'
p841
I47
sS'{25019,65457}'
p842
I24
sS'37663'
p843
I1
sS'37662'
p844
I56
sS'721'
p845
I1
sS'44395'
p846
I5
sS'37668'
p847
I2
sS'6697'
p848
I103
sS'27678'
p849
I1
sS'199993'
p850
I6
sS'17451'
p851
I5
sS'60781'
p852
I4
sS'132132'
p853
I21
sS'1213'
p854
I39
sS'5602'
p855
I3
sS'36868'
p856
I8
sS'15389'
p857
I14
sS'31133'
p858
I42
sS'39326'
p859
I19
sS'15576'
p860
I26
sS'5645'
p861
I60
sS'61813'
p862
I3
sS'4922'
p863
I2
sS'25091'
p864
I105
sS'11170'
p865
I11
sS'42708'
p866
I85
sS'50300'
p867
I4
sS'42953'
p868
I1
sS'50304'
p869
I4
sS'29075'
p870
I42
sS'6185'
p871
I1450
sS'24862'
p872
I8
sS'8674'
p873
I50
sS'42313'
p874
I4
sS'6908'
p875
I101
sS'199150'
p876
I7
sS'2500'
p877
I62
sS'262206'
p878
I2
sS'47720'
p879
I10
sS'20144'
p880
I169
sS'48635'
p881
I7
sS'45147'
p882
I2
sS'12552'
p883
I99
sS'8551'
p884
I138
sS'198068'
p885
I3
sS'9198'
p886
I289
sS'9211'
p887
I6
sS'22822'
p888
I216
sS'2637'
p889
I2
sS'9808'
p890
I101
sS'6461'
p891
I1197
sS'44735'
p892
I13
sS'21502'
p893
I3
sS'12414'
p894
I55
sS'27699'
p895
I33
sS'28753'
p896
I66
sS'21395'
p897
I4
sS'35003'
p898
I1
sS'4589'
p899
I56
sS'3851'
p900
I13
sS'719'
p901
I11
sS'25933'
p902
I5
s.